target datalayout = "e-m:e-p270:32:32-p271:32:32-p272:64:64-i64:64-i128:128-f80:128-n8:16:32:64-S128"
target triple = "x86_64-pc-linux-gnu"

%"class.std::basic_string_view" = type { i64, ptr }
%"class.(anonymous namespace)::cmQtAutoRccT" = type <{ %class.cmQtAutoGenerator, i8, i8, i8, [5 x i8], %"class.std::__cxx11::basic_string", %"class.std::__cxx11::basic_string", %"class.std::__cxx11::basic_string", %"class.std::__cxx11::basic_string", %class.cmFileTime, %"class.std::vector", %"class.std::__cxx11::basic_string", %class.cmFileLock, %"class.std::__cxx11::basic_string", %"class.std::__cxx11::basic_string", %"class.std::__cxx11::basic_string", %class.cmFileTime, %"class.std::__cxx11::basic_string", %"class.std::__cxx11::basic_string", %"class.std::__cxx11::basic_string", %"class.std::__cxx11::basic_string", %class.cmFileTime, %"class.std::__cxx11::basic_string", %"class.std::vector", %"class.std::vector", %"class.std::__cxx11::basic_string", %"class.std::__cxx11::basic_string", i8, i8, [6 x i8] }>
%class.cmQtAutoGenerator = type { ptr, i32, [4 x i8], %"class.cmQtAutoGenerator::Logger", %"class.std::__cxx11::basic_string", %"class.std::__cxx11::basic_string", %class.cmFileTime, %"class.std::__cxx11::basic_string", %"class.std::__cxx11::basic_string", %"struct.cmQtAutoGenerator::ProjectDirsT" }
%"class.cmQtAutoGenerator::Logger" = type <{ %"class.std::mutex", i32, i8, [3 x i8] }>
%"class.std::mutex" = type { %"class.std::__mutex_base" }
%"class.std::__mutex_base" = type { %union.pthread_mutex_t }
%union.pthread_mutex_t = type { %struct.__pthread_mutex_s }
%struct.__pthread_mutex_s = type { i32, i32, i32, i32, i32, i16, i16, %struct.__pthread_internal_list }
%struct.__pthread_internal_list = type { ptr, ptr }
%"struct.cmQtAutoGenerator::ProjectDirsT" = type { %"class.std::__cxx11::basic_string", %"class.std::__cxx11::basic_string", %"class.std::__cxx11::basic_string", %"class.std::__cxx11::basic_string" }
%class.cmFileLock = type { i32, %"class.std::__cxx11::basic_string" }
%class.cmFileTime = type { i64 }
%"class.std::vector" = type { %"struct.std::_Vector_base" }
%"struct.std::_Vector_base" = type { %"struct.std::_Vector_base<std::__cxx11::basic_string<char>, std::allocator<std::__cxx11::basic_string<char>>>::_Vector_impl" }
%"struct.std::_Vector_base<std::__cxx11::basic_string<char>, std::allocator<std::__cxx11::basic_string<char>>>::_Vector_impl" = type { %"struct.std::_Vector_base<std::__cxx11::basic_string<char>, std::allocator<std::__cxx11::basic_string<char>>>::_Vector_impl_data" }
%"struct.std::_Vector_base<std::__cxx11::basic_string<char>, std::allocator<std::__cxx11::basic_string<char>>>::_Vector_impl_data" = type { ptr, ptr, ptr }
%"class.std::__cxx11::basic_string" = type { %"struct.std::__cxx11::basic_string<char>::_Alloc_hider", i64, %union.anon }
%"struct.std::__cxx11::basic_string<char>::_Alloc_hider" = type { ptr }
%union.anon = type { i64, [8 x i8] }

; Function Attrs: mustprogress nounwind uwtable
define linkonce_odr dso_local void @_ZNSt15__new_allocatorINSt7__cxx1112basic_stringIcSt11char_traitsIcESaIcEEEEC2Ev(ptr noundef nonnull align 1 dereferenceable(1) %0) unnamed_addr #6 comdat align 2 {
  %2 = alloca ptr, align 8
  store ptr %0, ptr %2, align 8
  ret void
}

; Function Attrs: mustprogress nounwind uwtable
define linkonce_odr dso_local void @_ZNSt12_Vector_baseINSt7__cxx1112basic_stringIcSt11char_traitsIcESaIcEEESaIS5_EE17_Vector_impl_dataC2Ev(ptr noundef nonnull align 8 dereferenceable(24) %0) unnamed_addr #6 comdat align 2 {
  %2 = alloca ptr, align 8
  store ptr %0, ptr %2, align 8
  %3 = load ptr, ptr %2, align 8
  %4 = getelementptr inbounds %"struct.std::_Vector_base<std::__cxx11::basic_string<char>, std::allocator<std::__cxx11::basic_string<char>>>::_Vector_impl_data", ptr %3, i32 0, i32 0
  store ptr null, ptr %4, align 8
  %5 = getelementptr inbounds %"struct.std::_Vector_base<std::__cxx11::basic_string<char>, std::allocator<std::__cxx11::basic_string<char>>>::_Vector_impl_data", ptr %3, i32 0, i32 1
  store ptr null, ptr %5, align 8
  %6 = getelementptr inbounds %"struct.std::_Vector_base<std::__cxx11::basic_string<char>, std::allocator<std::__cxx11::basic_string<char>>>::_Vector_impl_data", ptr %3, i32 0, i32 2
  store ptr null, ptr %6, align 8
  ret void
}

; Function Attrs: mustprogress nounwind uwtable
define linkonce_odr dso_local void @_ZNSaINSt7__cxx1112basic_stringIcSt11char_traitsIcESaIcEEEEC2Ev(ptr noundef nonnull align 1 dereferenceable(1) %0) unnamed_addr #6 comdat align 2 {
  %2 = alloca ptr, align 8
  store ptr %0, ptr %2, align 8
  %3 = load ptr, ptr %2, align 8
  call void @_ZNSt15__new_allocatorINSt7__cxx1112basic_stringIcSt11char_traitsIcESaIcEEEEC2Ev(ptr noundef nonnull align 1 dereferenceable(1) %3) #3
  ret void
}

; Function Attrs: mustprogress nounwind uwtable
define linkonce_odr dso_local void @_ZNSt12_Vector_baseINSt7__cxx1112basic_stringIcSt11char_traitsIcESaIcEEESaIS5_EE12_Vector_implC2Ev(ptr noundef nonnull align 8 dereferenceable(24) %0) unnamed_addr #6 comdat align 2 {
  %2 = alloca ptr, align 8
  store ptr %0, ptr %2, align 8
  %3 = load ptr, ptr %2, align 8
  call void @_ZNSaINSt7__cxx1112basic_stringIcSt11char_traitsIcESaIcEEEEC2Ev(ptr noundef nonnull align 1 dereferenceable(1) %3) #3
  call void @_ZNSt12_Vector_baseINSt7__cxx1112basic_stringIcSt11char_traitsIcESaIcEEESaIS5_EE17_Vector_impl_dataC2Ev(ptr noundef nonnull align 8 dereferenceable(24) %3) #3
  ret void
}

; Function Attrs: mustprogress nounwind uwtable
define linkonce_odr dso_local void @_ZNSt12_Vector_baseINSt7__cxx1112basic_stringIcSt11char_traitsIcESaIcEEESaIS5_EEC2Ev(ptr noundef nonnull align 8 dereferenceable(24) %0) unnamed_addr #6 comdat align 2 {
  %2 = alloca ptr, align 8
  store ptr %0, ptr %2, align 8
  %3 = load ptr, ptr %2, align 8
  %4 = getelementptr inbounds %"struct.std::_Vector_base", ptr %3, i32 0, i32 0
  call void @_ZNSt12_Vector_baseINSt7__cxx1112basic_stringIcSt11char_traitsIcESaIcEEESaIS5_EE12_Vector_implC2Ev(ptr noundef nonnull align 8 dereferenceable(24) %4) #3
  ret void
}

; Function Attrs: mustprogress nounwind uwtable
define linkonce_odr dso_local void @_ZNSt6vectorINSt7__cxx1112basic_stringIcSt11char_traitsIcESaIcEEESaIS5_EEC2Ev(ptr noundef nonnull align 8 dereferenceable(24) %0) unnamed_addr #6 comdat align 2 {
  %2 = alloca ptr, align 8
  store ptr %0, ptr %2, align 8
  %3 = load ptr, ptr %2, align 8
  call void @_ZNSt12_Vector_baseINSt7__cxx1112basic_stringIcSt11char_traitsIcESaIcEEESaIS5_EEC2Ev(ptr noundef nonnull align 8 dereferenceable(24) %3) #3
  ret void
}

; Function Attrs: mustprogress nounwind uwtable
define linkonce_odr dso_local void @_ZN10cmFileTimeC2Ev(ptr noundef nonnull align 8 dereferenceable(8) %0) unnamed_addr #6 comdat align 2 {
  %2 = alloca ptr, align 8
  store ptr %0, ptr %2, align 8
  %3 = load ptr, ptr %2, align 8
  %4 = getelementptr inbounds %class.cmFileTime, ptr %3, i32 0, i32 0
  store i64 0, ptr %4, align 8
  ret void
}

; Function Attrs: mustprogress uwtable
define internal void @_ZN12_GLOBAL__N_112cmQtAutoRccTC2Ev(ptr noundef nonnull align 8 dereferenceable(954) %0) unnamed_addr #4 align 2 personality ptr @__gxx_personality_v0 {
  %2 = alloca ptr, align 8
  %3 = alloca ptr, align 8
  %4 = alloca i32, align 4
  store ptr %0, ptr %2, align 8
  %5 = load ptr, ptr %2, align 8
  call void @_ZN17cmQtAutoGeneratorC2EN11cmQtAutoGen4GenTE(ptr noundef nonnull align 8 dereferenceable(328) %5, i32 noundef 3)
  store ptr getelementptr inbounds ({ [6 x ptr] }, ptr @_ZTVN12_GLOBAL__N_112cmQtAutoRccTE, i32 0, i32 0, i32 2), ptr %5, align 8
  %6 = getelementptr inbounds %"class.(anonymous namespace)::cmQtAutoRccT", ptr %5, i32 0, i32 1
  store i8 0, ptr %6, align 8
  %7 = getelementptr inbounds %"class.(anonymous namespace)::cmQtAutoRccT", ptr %5, i32 0, i32 2
  store i8 0, ptr %7, align 1
  %8 = getelementptr inbounds %"class.(anonymous namespace)::cmQtAutoRccT", ptr %5, i32 0, i32 3
  store i8 0, ptr %8, align 2
  %9 = getelementptr inbounds %"class.(anonymous namespace)::cmQtAutoRccT", ptr %5, i32 0, i32 5
  call void @_ZNSt7__cxx1112basic_stringIcSt11char_traitsIcESaIcEEC1Ev(ptr noundef nonnull align 8 dereferenceable(32) %9) #3
  %10 = getelementptr inbounds %"class.(anonymous namespace)::cmQtAutoRccT", ptr %5, i32 0, i32 6
  call void @_ZNSt7__cxx1112basic_stringIcSt11char_traitsIcESaIcEEC1Ev(ptr noundef nonnull align 8 dereferenceable(32) %10) #3
  %11 = getelementptr inbounds %"class.(anonymous namespace)::cmQtAutoRccT", ptr %5, i32 0, i32 7
  call void @_ZNSt7__cxx1112basic_stringIcSt11char_traitsIcESaIcEEC1Ev(ptr noundef nonnull align 8 dereferenceable(32) %11) #3
  %12 = getelementptr inbounds %"class.(anonymous namespace)::cmQtAutoRccT", ptr %5, i32 0, i32 8
  call void @_ZNSt7__cxx1112basic_stringIcSt11char_traitsIcESaIcEEC1Ev(ptr noundef nonnull align 8 dereferenceable(32) %12) #3
  %13 = getelementptr inbounds %"class.(anonymous namespace)::cmQtAutoRccT", ptr %5, i32 0, i32 9
  call void @_ZN10cmFileTimeC2Ev(ptr noundef nonnull align 8 dereferenceable(8) %13) #3
  %14 = getelementptr inbounds %"class.(anonymous namespace)::cmQtAutoRccT", ptr %5, i32 0, i32 10
  call void @_ZNSt6vectorINSt7__cxx1112basic_stringIcSt11char_traitsIcESaIcEEESaIS5_EEC2Ev(ptr noundef nonnull align 8 dereferenceable(24) %14) #3
  %15 = getelementptr inbounds %"class.(anonymous namespace)::cmQtAutoRccT", ptr %5, i32 0, i32 11
  call void @_ZNSt7__cxx1112basic_stringIcSt11char_traitsIcESaIcEEC1Ev(ptr noundef nonnull align 8 dereferenceable(32) %15) #3
  %16 = getelementptr inbounds %"class.(anonymous namespace)::cmQtAutoRccT", ptr %5, i32 0, i32 12
  invoke void @_ZN10cmFileLockC1Ev(ptr noundef nonnull align 8 dereferenceable(40) %16)
          to label %17 unwind label %34

17:                                               ; preds = %1
  %18 = getelementptr inbounds %"class.(anonymous namespace)::cmQtAutoRccT", ptr %5, i32 0, i32 13
  call void @_ZNSt7__cxx1112basic_stringIcSt11char_traitsIcESaIcEEC1Ev(ptr noundef nonnull align 8 dereferenceable(32) %18) #3
  %19 = getelementptr inbounds %"class.(anonymous namespace)::cmQtAutoRccT", ptr %5, i32 0, i32 14
  call void @_ZNSt7__cxx1112basic_stringIcSt11char_traitsIcESaIcEEC1Ev(ptr noundef nonnull align 8 dereferenceable(32) %19) #3
  %20 = getelementptr inbounds %"class.(anonymous namespace)::cmQtAutoRccT", ptr %5, i32 0, i32 15
  call void @_ZNSt7__cxx1112basic_stringIcSt11char_traitsIcESaIcEEC1Ev(ptr noundef nonnull align 8 dereferenceable(32) %20) #3
  %21 = getelementptr inbounds %"class.(anonymous namespace)::cmQtAutoRccT", ptr %5, i32 0, i32 16
  call void @_ZN10cmFileTimeC2Ev(ptr noundef nonnull align 8 dereferenceable(8) %21) #3
  %22 = getelementptr inbounds %"class.(anonymous namespace)::cmQtAutoRccT", ptr %5, i32 0, i32 17
  call void @_ZNSt7__cxx1112basic_stringIcSt11char_traitsIcESaIcEEC1Ev(ptr noundef nonnull align 8 dereferenceable(32) %22) #3
  %23 = getelementptr inbounds %"class.(anonymous namespace)::cmQtAutoRccT", ptr %5, i32 0, i32 18
  call void @_ZNSt7__cxx1112basic_stringIcSt11char_traitsIcESaIcEEC1Ev(ptr noundef nonnull align 8 dereferenceable(32) %23) #3
  %24 = getelementptr inbounds %"class.(anonymous namespace)::cmQtAutoRccT", ptr %5, i32 0, i32 19
  call void @_ZNSt7__cxx1112basic_stringIcSt11char_traitsIcESaIcEEC1Ev(ptr noundef nonnull align 8 dereferenceable(32) %24) #3
  %25 = getelementptr inbounds %"class.(anonymous namespace)::cmQtAutoRccT", ptr %5, i32 0, i32 20
  call void @_ZNSt7__cxx1112basic_stringIcSt11char_traitsIcESaIcEEC1Ev(ptr noundef nonnull align 8 dereferenceable(32) %25) #3
  %26 = getelementptr inbounds %"class.(anonymous namespace)::cmQtAutoRccT", ptr %5, i32 0, i32 21
  call void @_ZN10cmFileTimeC2Ev(ptr noundef nonnull align 8 dereferenceable(8) %26) #3
  %27 = getelementptr inbounds %"class.(anonymous namespace)::cmQtAutoRccT", ptr %5, i32 0, i32 22
  call void @_ZNSt7__cxx1112basic_stringIcSt11char_traitsIcESaIcEEC1Ev(ptr noundef nonnull align 8 dereferenceable(32) %27) #3
  %28 = getelementptr inbounds %"class.(anonymous namespace)::cmQtAutoRccT", ptr %5, i32 0, i32 23
  call void @_ZNSt6vectorINSt7__cxx1112basic_stringIcSt11char_traitsIcESaIcEEESaIS5_EEC2Ev(ptr noundef nonnull align 8 dereferenceable(24) %28) #3
  %29 = getelementptr inbounds %"class.(anonymous namespace)::cmQtAutoRccT", ptr %5, i32 0, i32 24
  call void @_ZNSt6vectorINSt7__cxx1112basic_stringIcSt11char_traitsIcESaIcEEESaIS5_EEC2Ev(ptr noundef nonnull align 8 dereferenceable(24) %29) #3
  %30 = getelementptr inbounds %"class.(anonymous namespace)::cmQtAutoRccT", ptr %5, i32 0, i32 25
  call void @_ZNSt7__cxx1112basic_stringIcSt11char_traitsIcESaIcEEC1Ev(ptr noundef nonnull align 8 dereferenceable(32) %30) #3
  %31 = getelementptr inbounds %"class.(anonymous namespace)::cmQtAutoRccT", ptr %5, i32 0, i32 26
  call void @_ZNSt7__cxx1112basic_stringIcSt11char_traitsIcESaIcEEC1Ev(ptr noundef nonnull align 8 dereferenceable(32) %31) #3
  %32 = getelementptr inbounds %"class.(anonymous namespace)::cmQtAutoRccT", ptr %5, i32 0, i32 27
  store i8 0, ptr %32, align 8
  %33 = getelementptr inbounds %"class.(anonymous namespace)::cmQtAutoRccT", ptr %5, i32 0, i32 28
  store i8 0, ptr %33, align 1
  ret void

34:                                               ; preds = %1
  %35 = landingpad { ptr, i32 }
          cleanup
  %36 = extractvalue { ptr, i32 } %35, 0
  store ptr %36, ptr %3, align 8
  %37 = extractvalue { ptr, i32 } %35, 1
  store i32 %37, ptr %4, align 4
  call void @_ZNSt7__cxx1112basic_stringIcSt11char_traitsIcESaIcEED1Ev(ptr noundef nonnull align 8 dereferenceable(32) %15) #3
  call void @_ZNSt6vectorINSt7__cxx1112basic_stringIcSt11char_traitsIcESaIcEEESaIS5_EED2Ev(ptr noundef nonnull align 8 dereferenceable(24) %14) #3
  call void @_ZNSt7__cxx1112basic_stringIcSt11char_traitsIcESaIcEED1Ev(ptr noundef nonnull align 8 dereferenceable(32) %12) #3
  call void @_ZNSt7__cxx1112basic_stringIcSt11char_traitsIcESaIcEED1Ev(ptr noundef nonnull align 8 dereferenceable(32) %11) #3
  call void @_ZNSt7__cxx1112basic_stringIcSt11char_traitsIcESaIcEED1Ev(ptr noundef nonnull align 8 dereferenceable(32) %10) #3
  call void @_ZNSt7__cxx1112basic_stringIcSt11char_traitsIcESaIcEED1Ev(ptr noundef nonnull align 8 dereferenceable(32) %9) #3
  call void @_ZN17cmQtAutoGeneratorD2Ev(ptr noundef nonnull align 8 dereferenceable(328) %5) #3
  br label %38

38:                                               ; preds = %34
  %39 = load ptr, ptr %3, align 8
  %40 = load i32, ptr %4, align 4
  %41 = insertvalue { ptr, i32 } poison, ptr %39, 0
  %42 = insertvalue { ptr, i32 } %41, i32 %40, 1
  resume { ptr, i32 } %42
}

; Function Attrs: mustprogress uwtable
define dso_local noundef zeroext i1 @_Z11cmQtAutoRccSt17basic_string_viewIcSt11char_traitsIcEES2_S2_(i64 %0, ptr %1, i64 %2, ptr %3, i64 %4, ptr %5) #4 personality ptr @__gxx_personality_v0 {
  %7 = alloca %"class.std::basic_string_view", align 8
  %8 = alloca %"class.std::basic_string_view", align 8
  %9 = alloca %"class.std::basic_string_view", align 8
  %10 = alloca %"class.(anonymous namespace)::cmQtAutoRccT", align 8
  %11 = alloca %"class.std::basic_string_view", align 8
  %12 = alloca %"class.std::basic_string_view", align 8
  %13 = alloca %"class.std::basic_string_view", align 8
  %14 = alloca ptr, align 8
  %15 = alloca i32, align 4
  %16 = getelementptr inbounds { i64, ptr }, ptr %7, i32 0, i32 0
  store i64 %0, ptr %16, align 8
  %17 = getelementptr inbounds { i64, ptr }, ptr %7, i32 0, i32 1
  store ptr %1, ptr %17, align 8
  %18 = getelementptr inbounds { i64, ptr }, ptr %8, i32 0, i32 0
  store i64 %2, ptr %18, align 8
  %19 = getelementptr inbounds { i64, ptr }, ptr %8, i32 0, i32 1
  store ptr %3, ptr %19, align 8
  %20 = getelementptr inbounds { i64, ptr }, ptr %9, i32 0, i32 0
  store i64 %4, ptr %20, align 8
  %21 = getelementptr inbounds { i64, ptr }, ptr %9, i32 0, i32 1
  store ptr %5, ptr %21, align 8
  call void @_ZN12_GLOBAL__N_112cmQtAutoRccTC2Ev(ptr noundef nonnull align 8 dereferenceable(954) %10)
  call void @llvm.memcpy.p0.p0.i64(ptr align 8 %11, ptr align 8 %7, i64 16, i1 false)
  call void @llvm.memcpy.p0.p0.i64(ptr align 8 %12, ptr align 8 %8, i64 16, i1 false)
  call void @llvm.memcpy.p0.p0.i64(ptr align 8 %13, ptr align 8 %9, i64 16, i1 false)
  %22 = getelementptr inbounds { i64, ptr }, ptr %11, i32 0, i32 0
  %23 = load i64, ptr %22, align 8
  %24 = getelementptr inbounds { i64, ptr }, ptr %11, i32 0, i32 1
  %25 = load ptr, ptr %24, align 8
  %26 = getelementptr inbounds { i64, ptr }, ptr %12, i32 0, i32 0
  %27 = load i64, ptr %26, align 8
  %28 = getelementptr inbounds { i64, ptr }, ptr %12, i32 0, i32 1
  %29 = load ptr, ptr %28, align 8
  %30 = invoke noundef zeroext i1 @_ZN17cmQtAutoGenerator3RunESt17basic_string_viewIcSt11char_traitsIcEES3_S3_(ptr noundef nonnull align 8 dereferenceable(328) %10, i64 %23, ptr %25, i64 %27, ptr %29, ptr noundef byval(%"class.std::basic_string_view") align 8 %13)
          to label %31 unwind label %32

31:                                               ; preds = %6
  call void @_ZN12_GLOBAL__N_112cmQtAutoRccTD2Ev(ptr noundef nonnull align 8 dereferenceable(954) %10) #3
  ret i1 %30

32:                                               ; preds = %6
  %33 = landingpad { ptr, i32 }
          cleanup
  %34 = extractvalue { ptr, i32 } %33, 0
  store ptr %34, ptr %14, align 8
  %35 = extractvalue { ptr, i32 } %33, 1
  store i32 %35, ptr %15, align 4
  call void @_ZN12_GLOBAL__N_112cmQtAutoRccTD2Ev(ptr noundef nonnull align 8 dereferenceable(954) %10) #3
  br label %36

36:                                               ; preds = %32
  %37 = load ptr, ptr %14, align 8
  %38 = load i32, ptr %15, align 4
  %39 = insertvalue { ptr, i32 } poison, ptr %37, 0
  %40 = insertvalue { ptr, i32 } %39, i32 %38, 1
  resume { ptr, i32 } %40
}