; Function Attrs: mustprogress uwtable
define dso_local noundef zeroext i1 @_Z11cmQtAutoRccSt17basic_string_viewIcSt11char_traitsIcEES2_S2_(i64 %0, ptr %1, i64 %2, ptr %3, i64 %4, ptr %5) local_unnamed_addr #3 personality ptr @__gxx_personality_v0 {
  %7 = alloca %"class.(anonymous namespace)::cmQtAutoRccT", align 8
  %8 = alloca %"class.std::basic_string_view", align 8
  call void @_ZN17cmQtAutoGeneratorC2EN11cmQtAutoGen4GenTE(ptr noundef nonnull align 8 dereferenceable(328) %7, i32 noundef 3)
  store ptr getelementptr inbounds ({ [6 x ptr] }, ptr @_ZTVN12_GLOBAL__N_112cmQtAutoRccTE, i64 0, i32 0, i64 2), ptr %7, align 8
  %9 = getelementptr inbounds i8, ptr %7, i64 328
  store i8 0, ptr %9, align 8
  %10 = getelementptr inbounds i8, ptr %7, i64 329
  store i8 0, ptr %10, align 1
  %11 = getelementptr inbounds i8, ptr %7, i64 330
  store i8 0, ptr %11, align 2
  %12 = getelementptr inbounds i8, ptr %7, i64 336
  call void @_ZNSt7__cxx1112basic_stringIcSt11char_traitsIcESaIcEEC1Ev(ptr noundef nonnull align 8 dereferenceable(32) %12) #16
  %13 = getelementptr inbounds i8, ptr %7, i64 368
  call void @_ZNSt7__cxx1112basic_stringIcSt11char_traitsIcESaIcEEC1Ev(ptr noundef nonnull align 8 dereferenceable(32) %13) #16
  %14 = getelementptr inbounds i8, ptr %7, i64 400
  call void @_ZNSt7__cxx1112basic_stringIcSt11char_traitsIcESaIcEEC1Ev(ptr noundef nonnull align 8 dereferenceable(32) %14) #16
  %15 = getelementptr inbounds i8, ptr %7, i64 432
  call void @_ZNSt7__cxx1112basic_stringIcSt11char_traitsIcESaIcEEC1Ev(ptr noundef nonnull align 8 dereferenceable(32) %15) #16
  %16 = getelementptr inbounds i8, ptr %7, i64 464
  %17 = getelementptr inbounds i8, ptr %7, i64 496
  call void @llvm.memset.p0.i64(ptr noundef nonnull align 8 dereferenceable(32) %16, i8 0, i64 32, i1 false)
  call void @_ZNSt7__cxx1112basic_stringIcSt11char_traitsIcESaIcEEC1Ev(ptr noundef nonnull align 8 dereferenceable(32) %17) #16
  %18 = getelementptr inbounds i8, ptr %7, i64 528
  invoke void @_ZN10cmFileLockC1Ev(ptr noundef nonnull align 8 dereferenceable(40) %18)
          to label %_ZN12_GLOBAL__N_112cmQtAutoRccTC2Ev.exit unwind label %19

common.resume:                                    ; preds = %39, %19
  %common.resume.op = phi { ptr, i32 } [ %20, %19 ], [ %40, %39 ]
  resume { ptr, i32 } %common.resume.op

19:                                               ; preds = %6
  %20 = landingpad { ptr, i32 }
          cleanup
  %21 = getelementptr inbounds i8, ptr %7, i64 472
  call void @_ZNSt7__cxx1112basic_stringIcSt11char_traitsIcESaIcEED1Ev(ptr noundef nonnull align 8 dereferenceable(32) %17) #16
  call void @_ZNSt6vectorINSt7__cxx1112basic_stringIcSt11char_traitsIcESaIcEEESaIS5_EED2Ev(ptr noundef nonnull align 8 dereferenceable(24) %21) #16
  call void @_ZNSt7__cxx1112basic_stringIcSt11char_traitsIcESaIcEED1Ev(ptr noundef nonnull align 8 dereferenceable(32) %15) #16
  call void @_ZNSt7__cxx1112basic_stringIcSt11char_traitsIcESaIcEED1Ev(ptr noundef nonnull align 8 dereferenceable(32) %14) #16
  call void @_ZNSt7__cxx1112basic_stringIcSt11char_traitsIcESaIcEED1Ev(ptr noundef nonnull align 8 dereferenceable(32) %13) #16
  call void @_ZNSt7__cxx1112basic_stringIcSt11char_traitsIcESaIcEED1Ev(ptr noundef nonnull align 8 dereferenceable(32) %12) #16
  call void @_ZN17cmQtAutoGeneratorD2Ev(ptr noundef nonnull align 8 dereferenceable(328) %7) #16
  br label %common.resume

_ZN12_GLOBAL__N_112cmQtAutoRccTC2Ev.exit:         ; preds = %6
  %22 = getelementptr inbounds i8, ptr %7, i64 568
  call void @_ZNSt7__cxx1112basic_stringIcSt11char_traitsIcESaIcEEC1Ev(ptr noundef nonnull align 8 dereferenceable(32) %22) #16
  %23 = getelementptr inbounds i8, ptr %7, i64 600
  call void @_ZNSt7__cxx1112basic_stringIcSt11char_traitsIcESaIcEEC1Ev(ptr noundef nonnull align 8 dereferenceable(32) %23) #16
  %24 = getelementptr inbounds i8, ptr %7, i64 632
  call void @_ZNSt7__cxx1112basic_stringIcSt11char_traitsIcESaIcEEC1Ev(ptr noundef nonnull align 8 dereferenceable(32) %24) #16
  %25 = getelementptr inbounds i8, ptr %7, i64 664
  store i64 0, ptr %25, align 8
  %26 = getelementptr inbounds i8, ptr %7, i64 672
  call void @_ZNSt7__cxx1112basic_stringIcSt11char_traitsIcESaIcEEC1Ev(ptr noundef nonnull align 8 dereferenceable(32) %26) #16
  %27 = getelementptr inbounds i8, ptr %7, i64 704
  call void @_ZNSt7__cxx1112basic_stringIcSt11char_traitsIcESaIcEEC1Ev(ptr noundef nonnull align 8 dereferenceable(32) %27) #16
  %28 = getelementptr inbounds i8, ptr %7, i64 736
  call void @_ZNSt7__cxx1112basic_stringIcSt11char_traitsIcESaIcEEC1Ev(ptr noundef nonnull align 8 dereferenceable(32) %28) #16
  %29 = getelementptr inbounds i8, ptr %7, i64 768
  call void @_ZNSt7__cxx1112basic_stringIcSt11char_traitsIcESaIcEEC1Ev(ptr noundef nonnull align 8 dereferenceable(32) %29) #16
  %30 = getelementptr inbounds i8, ptr %7, i64 800
  store i64 0, ptr %30, align 8
  %31 = getelementptr inbounds i8, ptr %7, i64 808
  call void @_ZNSt7__cxx1112basic_stringIcSt11char_traitsIcESaIcEEC1Ev(ptr noundef nonnull align 8 dereferenceable(32) %31) #16
  %32 = getelementptr inbounds i8, ptr %7, i64 840
  %33 = getelementptr inbounds i8, ptr %7, i64 888
  call void @llvm.memset.p0.i64(ptr noundef nonnull align 8 dereferenceable(48) %32, i8 0, i64 48, i1 false)
  call void @_ZNSt7__cxx1112basic_stringIcSt11char_traitsIcESaIcEEC1Ev(ptr noundef nonnull align 8 dereferenceable(32) %33) #16
  %34 = getelementptr inbounds i8, ptr %7, i64 920
  call void @_ZNSt7__cxx1112basic_stringIcSt11char_traitsIcESaIcEEC1Ev(ptr noundef nonnull align 8 dereferenceable(32) %34) #16
  %35 = getelementptr inbounds i8, ptr %7, i64 952
  store i8 0, ptr %35, align 8
  %36 = getelementptr inbounds i8, ptr %7, i64 953
  store i8 0, ptr %36, align 1
  store i64 %4, ptr %8, align 8
  %.sroa.24.0..sroa_idx = getelementptr inbounds i8, ptr %8, i64 8
  store ptr %5, ptr %.sroa.24.0..sroa_idx, align 8
  %37 = invoke noundef zeroext i1 @_ZN17cmQtAutoGenerator3RunESt17basic_string_viewIcSt11char_traitsIcEES3_S3_(ptr noundef nonnull align 8 dereferenceable(328) %7, i64 %0, ptr %1, i64 %2, ptr %3, ptr noundef nonnull byval(%"class.std::basic_string_view") align 8 %8)
          to label %38 unwind label %39

38:                                               ; preds = %_ZN12_GLOBAL__N_112cmQtAutoRccTC2Ev.exit
  call void @_ZN12_GLOBAL__N_112cmQtAutoRccTD2Ev(ptr noundef nonnull align 8 dereferenceable(954) %7) #16
  ret i1 %37

39:                                               ; preds = %_ZN12_GLOBAL__N_112cmQtAutoRccTC2Ev.exit
  %40 = landingpad { ptr, i32 }
          cleanup
  call void @_ZN12_GLOBAL__N_112cmQtAutoRccTD2Ev(ptr noundef nonnull align 8 dereferenceable(954) %7) #16
  br label %common.resume
}